; Function Attrs: mustprogress nofree norecurse nosync nounwind willreturn memory(readwrite, inaccessiblemem: none) uwtable
define range(i32 0, 2) i32 @ff_vvc_cu_qp_delta_sign_flag(ptr noundef readonly captures(none) %0) local_unnamed_addr #2 {
  %2 = getelementptr inbounds nuw i8, ptr %0, i64 4580560
  %3 = load ptr, ptr %2, align 16, !tbaa !67
  %4 = getelementptr inbounds nuw i8, ptr %3, i64 2672
  %5 = load i32, ptr %4, align 8, !tbaa !70
  %6 = shl nsw i32 %5, 1
  store i32 %6, ptr %4, align 8, !tbaa !70
  %7 = and i32 %5, 32767
  %.not.i = icmp eq i32 %7, 0
  br i1 %.not.i, label %8, label %refill.exit.i

8:                                                ; preds = %1
  %9 = getelementptr inbounds nuw i8, ptr %3, i64 2688
  %10 = load ptr, ptr %9, align 8, !tbaa !68
  %11 = load i8, ptr %10, align 1, !tbaa !97
  %12 = zext i8 %11 to i32
  %13 = shl nuw nsw i32 %12, 9
  %14 = getelementptr inbounds nuw i8, ptr %10, i64 1
  %15 = load i8, ptr %14, align 1, !tbaa !97
  %16 = zext i8 %15 to i32
  %17 = shl nuw nsw i32 %16, 1
  %18 = or disjoint i32 %17, %13
  %19 = add i32 %6, -65535
  %20 = add i32 %19, %18
  store i32 %20, ptr %4, align 8, !tbaa !70
  %21 = getelementptr inbounds nuw i8, ptr %3, i64 2696
  %22 = load ptr, ptr %21, align 8, !tbaa !71
  %23 = icmp ult ptr %10, %22
  br i1 %23, label %24, label %refill.exit.i

24:                                               ; preds = %8
  %25 = getelementptr inbounds nuw i8, ptr %10, i64 2
  store ptr %25, ptr %9, align 8, !tbaa !68
  br label %refill.exit.i

refill.exit.i:                                    ; preds = %24, %8, %1
  %26 = phi i32 [ %20, %24 ], [ %20, %8 ], [ %6, %1 ]
  %27 = getelementptr inbounds nuw i8, ptr %3, i64 2676
  %28 = load i32, ptr %27, align 4, !tbaa !100
  %29 = shl i32 %28, 17
  %30 = icmp slt i32 %26, %29
  br i1 %30, label %get_cabac_bypass.exit, label %31

31:                                               ; preds = %refill.exit.i
  %32 = sub nsw i32 %26, %29
  store i32 %32, ptr %4, align 8, !tbaa !70
  br label %get_cabac_bypass.exit

get_cabac_bypass.exit:                            ; preds = %refill.exit.i, %31
  %.0.i = phi i32 [ 1, %31 ], [ 0, %refill.exit.i ]
  ret i32 %.0.i
}